target datalayout = "e-m:e-p270:32:32-p271:32:32-p272:64:64-i64:64-i128:128-f80:128-n8:16:32:64-S128"
target triple = "x86_64-pc-linux-gnu"

%struct.expert_field = type { i32, i32 }

@ei_gsm_a_gm_extraneous_data = internal global %struct.expert_field zeroinitializer, align 4
@hf_gsm_a_spare_bits = external global i32, align 4
@hf_gsm_a_sm_eplmnc = internal global i32 0, align 4
@hf_gsm_a_sm_ratc = internal global i32 0, align 4

; Function Attrs: null_pointer_is_valid sspstrong uwtable
define internal zeroext i16 @de_sm_re_attempt_ind(ptr noundef %0, ptr noundef %1, ptr noundef %2, i32 noundef %3, i32 noundef %4, ptr noundef %5, i32 noundef %6) #1 {
  %8 = alloca ptr, align 8
  %9 = alloca ptr, align 8
  %10 = alloca ptr, align 8
  %11 = alloca i32, align 4
  %12 = alloca i32, align 4
  %13 = alloca ptr, align 8
  %14 = alloca i32, align 4
  %15 = alloca i32, align 4
  store ptr %0, ptr %8, align 8
  store ptr %1, ptr %9, align 8
  store ptr %2, ptr %10, align 8
  store i32 %3, ptr %11, align 4
  store i32 %4, ptr %12, align 4
  store ptr %5, ptr %13, align 8
  store i32 %6, ptr %14, align 4
  call void @llvm.lifetime.start.p0(i64 4, ptr %15) #6
  %16 = load i32, ptr %11, align 4
  store i32 %16, ptr %15, align 4
  %17 = load ptr, ptr %9, align 8
  %18 = load i32, ptr @hf_gsm_a_spare_bits, align 4
  %19 = load ptr, ptr %8, align 8
  %20 = load i32, ptr %11, align 4
  %21 = shl i32 %20, 3
  %22 = call ptr @proto_tree_add_bits_item(ptr noundef %17, i32 noundef %18, ptr noundef %19, i32 noundef %21, i32 noundef 6, i32 noundef 0)
  %23 = load ptr, ptr %9, align 8
  %24 = load i32, ptr @hf_gsm_a_sm_eplmnc, align 4
  %25 = load ptr, ptr %8, align 8
  %26 = load i32, ptr %11, align 4
  %27 = call ptr @proto_tree_add_item(ptr noundef %23, i32 noundef %24, ptr noundef %25, i32 noundef %26, i32 noundef 1, i32 noundef 0)
  %28 = load ptr, ptr %9, align 8
  %29 = load i32, ptr @hf_gsm_a_sm_ratc, align 4
  %30 = load ptr, ptr %8, align 8
  %31 = load i32, ptr %11, align 4
  %32 = call ptr @proto_tree_add_item(ptr noundef %28, i32 noundef %29, ptr noundef %30, i32 noundef %31, i32 noundef 1, i32 noundef 0)
  %33 = load i32, ptr %15, align 4
  %34 = add i32 %33, 1
  store i32 %34, ptr %15, align 4
  %35 = load i32, ptr %12, align 4
  %36 = load i32, ptr %15, align 4
  %37 = load i32, ptr %11, align 4
  %38 = sub i32 %36, %37
  %39 = icmp ugt i32 %35, %38
  br i1 %39, label %40, label %58

40:                                               ; preds = %7
  %41 = load ptr, ptr %9, align 8
  %42 = load ptr, ptr %10, align 8
  %43 = load ptr, ptr %8, align 8
  %44 = load i32, ptr %15, align 4
  %45 = load i32, ptr %12, align 4
  %46 = load i32, ptr %15, align 4
  %47 = load i32, ptr %11, align 4
  %48 = sub i32 %46, %47
  %49 = sub i32 %45, %48
  %50 = call ptr @proto_tree_add_expert(ptr noundef %41, ptr noundef %42, ptr noundef @ei_gsm_a_gm_extraneous_data, ptr noundef %43, i32 noundef %44, i32 noundef %49)
  %51 = load i32, ptr %12, align 4
  %52 = load i32, ptr %15, align 4
  %53 = load i32, ptr %11, align 4
  %54 = sub i32 %52, %53
  %55 = sub i32 %51, %54
  %56 = load i32, ptr %15, align 4
  %57 = add i32 %56, %55
  store i32 %57, ptr %15, align 4
  br label %58

58:                                               ; preds = %40, %7
  %59 = load i32, ptr %12, align 4
  %60 = trunc i32 %59 to i16
  call void @llvm.lifetime.end.p0(i64 4, ptr %15) #6
  ret i16 %60
}